; Function Attrs: mustprogress uwtable
define internal void @_ZN6google8protobufL15GetTypeNameImplB5cxx11ERKNS0_11MessageLiteE(ptr noalias sret(%"class.std::__cxx11::basic_string") align 8 %agg.result, ptr noundef nonnull align 8 dereferenceable(16) %msg) #3 {
entry:
  %vtable.i = load ptr, ptr %msg, align 8
  %vfn.i = getelementptr inbounds i8, ptr %vtable.i, i64 80
  %0 = load ptr, ptr %vfn.i, align 8
  %call.i = tail call { ptr, ptr } %0(ptr noundef nonnull align 8 dereferenceable(16) %msg)
  %1 = extractvalue { ptr, ptr } %call.i, 0
  %all_names_.i = getelementptr inbounds i8, ptr %1, i64 8
  %2 = load ptr, ptr %all_names_.i, align 8
  %arrayidx.i = getelementptr inbounds i8, ptr %2, i64 32
  tail call void @_ZNSt7__cxx1112basic_stringIcSt11char_traitsIcESaIcEEC1ERKS4_(ptr noundef nonnull align 8 dereferenceable(32) %agg.result, ptr noundef nonnull align 8 dereferenceable(32) %arrayidx.i)
  ret void
}